; Function Attrs: mustprogress uwtable
define noundef ptr @_ZN6icu_7724DateTimePatternGenerator14createInstanceER10UErrorCode(ptr noundef nonnull align 4 dereferenceable(4) %0) local_unnamed_addr #1 align 2 personality ptr @__gxx_personality_v0 {
  %2 = tail call noundef nonnull align 8 dereferenceable(217) ptr @_ZN6icu_776Locale10getDefaultEv()
  %3 = load i32, ptr %0, align 4, !tbaa !13
  %4 = icmp slt i32 %3, 1
  br i1 %4, label %5, label %_ZN6icu_7724DateTimePatternGenerator14createInstanceERKNS_6LocaleER10UErrorCode.exit

5:                                                ; preds = %1
  %6 = tail call noundef ptr @_ZN6icu_777UMemorynwEm(i64 noundef 4800) #35
  %7 = icmp eq ptr %6, null
  br i1 %7, label %9, label %8

8:                                                ; preds = %5
  invoke void @_ZN6icu_7724DateTimePatternGeneratorC1ERKNS_6LocaleER10UErrorCodea(ptr noundef nonnull align 8 dereferenceable(4796) %6, ptr noundef nonnull align 8 dereferenceable(217) %2, ptr noundef nonnull align 4 dereferenceable(4) %0, i8 noundef signext 0)
          to label %_ZN6icu_7712LocalPointerINS_24DateTimePatternGeneratorEEC2EPS1_R10UErrorCode.exit.i unwind label %18

9:                                                ; preds = %5
  %10 = load i32, ptr %0, align 4
  %11 = icmp sgt i32 %10, 0
  br i1 %11, label %_ZN6icu_7724DateTimePatternGenerator14createInstanceERKNS_6LocaleER10UErrorCode.exit, label %12

12:                                               ; preds = %9
  store i32 7, ptr %0, align 4, !tbaa !13
  br label %_ZN6icu_7724DateTimePatternGenerator14createInstanceERKNS_6LocaleER10UErrorCode.exit

_ZN6icu_7712LocalPointerINS_24DateTimePatternGeneratorEEC2EPS1_R10UErrorCode.exit.i: ; preds = %8
  %.pre.i = load i32, ptr %0, align 4, !tbaa !13
  %13 = icmp sgt i32 %.pre.i, 0
  br i1 %13, label %14, label %_ZN6icu_7724DateTimePatternGenerator14createInstanceERKNS_6LocaleER10UErrorCode.exit

14:                                               ; preds = %_ZN6icu_7712LocalPointerINS_24DateTimePatternGeneratorEEC2EPS1_R10UErrorCode.exit.i
  %15 = load ptr, ptr %6, align 8, !tbaa !15
  %16 = getelementptr inbounds nuw i8, ptr %15, i64 8
  %17 = load ptr, ptr %16, align 8
  tail call void %17(ptr noundef nonnull align 8 dereferenceable(4796) %6) #35
  br label %_ZN6icu_7724DateTimePatternGenerator14createInstanceERKNS_6LocaleER10UErrorCode.exit

18:                                               ; preds = %8
  %19 = landingpad { ptr, i32 }
          cleanup
  tail call void @_ZN6icu_777UMemorydlEPv(ptr noundef nonnull %6) #35
  resume { ptr, i32 } %19

_ZN6icu_7724DateTimePatternGenerator14createInstanceERKNS_6LocaleER10UErrorCode.exit: ; preds = %1, %9, %12, %_ZN6icu_7712LocalPointerINS_24DateTimePatternGeneratorEEC2EPS1_R10UErrorCode.exit.i, %14
  %.0.i = phi ptr [ null, %1 ], [ null, %14 ], [ %6, %_ZN6icu_7712LocalPointerINS_24DateTimePatternGeneratorEEC2EPS1_R10UErrorCode.exit.i ], [ null, %12 ], [ null, %9 ]
  ret ptr %.0.i
}